target datalayout = "e-m:e-p270:32:32-p271:32:32-p272:64:64-i64:64-i128:128-f80:128-n8:16:32:64-S128"
target triple = "x86_64-pc-linux-gnu"

%struct.expert_field = type { i32, i32 }
%struct._proto_node = type { ptr, ptr, ptr, ptr, ptr, ptr, ptr }
%struct.field_info = type { ptr, i32, i32, i32, i32, i32, i32, ptr, ptr, ptr, i32, i32 }

@ei_gsm_a_bssmap_extraneous_data = internal global %struct.expert_field zeroinitializer, align 4
@cell_discriminator = internal global i8 15, align 1
@g_tree = internal global ptr null, align 8
@hf_gsm_a_bssmap_layer_3_information_value = internal global i32 0, align 4
@.str.452 = private unnamed_addr constant [26 x i8] c"Layer 3 Information value\00", align 1
@hf_gsm_a_bssmap_cell_discriminator = internal global i32 0, align 4
@dtap_handle = internal global ptr null, align 8
@.str.721 = private unnamed_addr constant [164 x i8] c"Cell Discriminator not initialised, try enabling the SCCP protocol option [Trace Associations], \0A or maybe the file does not contain the PDUs needed for SCCP trace\00", align 1
@.str.722 = private unnamed_addr constant [35 x i8] c"Unrecognised Cell Discriminator %x\00", align 1

; Function Attrs: inlinehint nounwind null_pointer_is_valid sspstrong uwtable
define internal void @proto_item_set_hidden(ptr noundef %0) #4 {
  %2 = alloca ptr, align 8
  store ptr %0, ptr %2, align 8
  %3 = load ptr, ptr %2, align 8
  %4 = icmp ne ptr %3, null
  br i1 %4, label %5, label %24

5:                                                ; preds = %1
  br label %6

6:                                                ; preds = %5
  %7 = load ptr, ptr %2, align 8
  %8 = getelementptr inbounds nuw %struct._proto_node, ptr %7, i32 0, i32 5
  %9 = load ptr, ptr %8, align 8
  %10 = icmp ne ptr %9, null
  br i1 %10, label %11, label %22

11:                                               ; preds = %6
  %12 = load ptr, ptr %2, align 8
  %13 = getelementptr inbounds nuw %struct._proto_node, ptr %12, i32 0, i32 5
  %14 = load ptr, ptr %13, align 8
  %15 = getelementptr inbounds nuw %struct.field_info, ptr %14, i32 0, i32 6
  %16 = load i32, ptr %15, align 4
  %17 = or i32 %16, 1
  %18 = load ptr, ptr %2, align 8
  %19 = getelementptr inbounds nuw %struct._proto_node, ptr %18, i32 0, i32 5
  %20 = load ptr, ptr %19, align 8
  %21 = getelementptr inbounds nuw %struct.field_info, ptr %20, i32 0, i32 6
  store i32 %17, ptr %21, align 4
  br label %22

22:                                               ; preds = %11, %6
  br label %23

23:                                               ; preds = %22
  br label %24

24:                                               ; preds = %23, %1
  ret void
}

; Function Attrs: null_pointer_is_valid sspstrong uwtable
define internal zeroext i16 @be_l3_info(ptr noundef %0, ptr noundef %1, ptr noundef %2, i32 noundef %3, i32 noundef %4, ptr noundef %5, i32 noundef %6) #1 {
  %8 = alloca ptr, align 8
  %9 = alloca ptr, align 8
  %10 = alloca ptr, align 8
  %11 = alloca i32, align 4
  %12 = alloca i32, align 4
  %13 = alloca ptr, align 8
  %14 = alloca i32, align 4
  %15 = alloca i32, align 4
  %16 = alloca ptr, align 8
  %17 = alloca ptr, align 8
  store ptr %0, ptr %8, align 8
  store ptr %1, ptr %9, align 8
  store ptr %2, ptr %10, align 8
  store i32 %3, ptr %11, align 4
  store i32 %4, ptr %12, align 4
  store ptr %5, ptr %13, align 8
  store i32 %6, ptr %14, align 4
  call void @llvm.lifetime.start.p0(i64 4, ptr %15) #5
  call void @llvm.lifetime.start.p0(i64 8, ptr %16) #5
  call void @llvm.lifetime.start.p0(i64 8, ptr %17) #5
  %18 = load i32, ptr %11, align 4
  store i32 %18, ptr %15, align 4
  %19 = load ptr, ptr %9, align 8
  %20 = load i32, ptr @hf_gsm_a_bssmap_layer_3_information_value, align 4
  %21 = load ptr, ptr %8, align 8
  %22 = load i32, ptr %15, align 4
  %23 = load i32, ptr %12, align 4
  %24 = call ptr (ptr, i32, ptr, i32, i32, ptr, ptr, ...) @proto_tree_add_bytes_format(ptr noundef %19, i32 noundef %20, ptr noundef %21, i32 noundef %22, i32 noundef %23, ptr noundef null, ptr noundef @.str.452)
  %25 = load ptr, ptr %8, align 8
  %26 = load i32, ptr %15, align 4
  %27 = load i32, ptr %12, align 4
  %28 = call ptr @tvb_new_subset_length(ptr noundef %25, i32 noundef %26, i32 noundef %27)
  store ptr %28, ptr %16, align 8
  %29 = load i8, ptr @cell_discriminator, align 1
  %30 = zext i8 %29 to i32
  %31 = icmp eq i32 %30, 255
  br i1 %31, label %32, label %42

32:                                               ; preds = %7
  %33 = load ptr, ptr %9, align 8
  %34 = load i32, ptr @hf_gsm_a_bssmap_cell_discriminator, align 4
  %35 = load ptr, ptr %16, align 8
  %36 = load i32, ptr %15, align 4
  %37 = load i8, ptr @cell_discriminator, align 1
  %38 = zext i8 %37 to i32
  %39 = call ptr (ptr, i32, ptr, i32, i32, i32, ptr, ...) @proto_tree_add_uint_format(ptr noundef %33, i32 noundef %34, ptr noundef %35, i32 noundef %36, i32 noundef 1, i32 noundef %38, ptr noundef @.str.721)
  store ptr %39, ptr %17, align 8
  %40 = load ptr, ptr %17, align 8
  %41 = load i32, ptr %12, align 4
  call void @proto_item_set_len(ptr noundef %40, i32 noundef %41)
  br label %93

42:                                               ; preds = %7
  %43 = load i8, ptr @cell_discriminator, align 1
  %44 = zext i8 %43 to i32
  %45 = and i32 %44, 15
  %46 = icmp slt i32 %45, 8
  br i1 %46, label %47, label %61

47:                                               ; preds = %42
  %48 = load ptr, ptr %9, align 8
  %49 = load i32, ptr @hf_gsm_a_bssmap_cell_discriminator, align 4
  %50 = load ptr, ptr %16, align 8
  %51 = load i32, ptr %15, align 4
  %52 = load i8, ptr @cell_discriminator, align 1
  %53 = zext i8 %52 to i32
  %54 = call ptr @proto_tree_add_uint(ptr noundef %48, i32 noundef %49, ptr noundef %50, i32 noundef %51, i32 noundef 1, i32 noundef %53)
  store ptr %54, ptr %17, align 8
  %55 = load ptr, ptr %17, align 8
  call void @proto_item_set_hidden(ptr noundef %55)
  %56 = load ptr, ptr @dtap_handle, align 8
  %57 = load ptr, ptr %16, align 8
  %58 = load ptr, ptr %10, align 8
  %59 = load ptr, ptr @g_tree, align 8
  %60 = call i32 @call_dissector(ptr noundef %56, ptr noundef %57, ptr noundef %58, ptr noundef %59)
  br label %92

61:                                               ; preds = %42
  %62 = load i8, ptr @cell_discriminator, align 1
  %63 = zext i8 %62 to i32
  %64 = and i32 %63, 15
  %65 = icmp slt i32 %64, 13
  br i1 %65, label %66, label %79

66:                                               ; preds = %61
  %67 = load ptr, ptr %9, align 8
  %68 = load i32, ptr @hf_gsm_a_bssmap_cell_discriminator, align 4
  %69 = load ptr, ptr %16, align 8
  %70 = load i32, ptr %15, align 4
  %71 = load i8, ptr @cell_discriminator, align 1
  %72 = zext i8 %71 to i32
  %73 = call ptr @proto_tree_add_uint(ptr noundef %67, i32 noundef %68, ptr noundef %69, i32 noundef %70, i32 noundef 1, i32 noundef %72)
  store ptr %73, ptr %17, align 8
  %74 = load ptr, ptr %17, align 8
  call void @proto_item_set_hidden(ptr noundef %74)
  %75 = load ptr, ptr %16, align 8
  %76 = load ptr, ptr %10, align 8
  %77 = load ptr, ptr @g_tree, align 8
  %78 = call i32 @dissect_rrc_HandoverToUTRANCommand_PDU(ptr noundef %75, ptr noundef %76, ptr noundef %77, ptr noundef null)
  br label %91

79:                                               ; preds = %61
  %80 = load ptr, ptr %9, align 8
  %81 = load i32, ptr @hf_gsm_a_bssmap_cell_discriminator, align 4
  %82 = load ptr, ptr %16, align 8
  %83 = load i32, ptr %15, align 4
  %84 = load i8, ptr @cell_discriminator, align 1
  %85 = zext i8 %84 to i32
  %86 = load i8, ptr @cell_discriminator, align 1
  %87 = zext i8 %86 to i32
  %88 = call ptr (ptr, i32, ptr, i32, i32, i32, ptr, ...) @proto_tree_add_uint_format(ptr noundef %80, i32 noundef %81, ptr noundef %82, i32 noundef %83, i32 noundef 1, i32 noundef %85, ptr noundef @.str.722, i32 noundef %87)
  store ptr %88, ptr %17, align 8
  %89 = load ptr, ptr %17, align 8
  %90 = load i32, ptr %12, align 4
  call void @proto_item_set_len(ptr noundef %89, i32 noundef %90)
  br label %91

91:                                               ; preds = %79, %66
  br label %92

92:                                               ; preds = %91, %47
  br label %93

93:                                               ; preds = %92, %32
  %94 = load i32, ptr %12, align 4
  %95 = load i32, ptr %15, align 4
  %96 = add i32 %95, %94
  store i32 %96, ptr %15, align 4
  %97 = load i32, ptr %12, align 4
  %98 = load i32, ptr %15, align 4
  %99 = load i32, ptr %11, align 4
  %100 = sub i32 %98, %99
  %101 = icmp ugt i32 %97, %100
  br i1 %101, label %102, label %120

102:                                              ; preds = %93
  %103 = load ptr, ptr %9, align 8
  %104 = load ptr, ptr %10, align 8
  %105 = load ptr, ptr %8, align 8
  %106 = load i32, ptr %15, align 4
  %107 = load i32, ptr %12, align 4
  %108 = load i32, ptr %15, align 4
  %109 = load i32, ptr %11, align 4
  %110 = sub i32 %108, %109
  %111 = sub i32 %107, %110
  %112 = call ptr @proto_tree_add_expert(ptr noundef %103, ptr noundef %104, ptr noundef @ei_gsm_a_bssmap_extraneous_data, ptr noundef %105, i32 noundef %106, i32 noundef %111)
  %113 = load i32, ptr %12, align 4
  %114 = load i32, ptr %15, align 4
  %115 = load i32, ptr %11, align 4
  %116 = sub i32 %114, %115
  %117 = sub i32 %113, %116
  %118 = load i32, ptr %15, align 4
  %119 = add i32 %118, %117
  store i32 %119, ptr %15, align 4
  br label %120

120:                                              ; preds = %102, %93
  %121 = load i32, ptr %15, align 4
  %122 = load i32, ptr %11, align 4
  %123 = sub i32 %121, %122
  %124 = trunc i32 %123 to i16
  call void @llvm.lifetime.end.p0(i64 8, ptr %17) #5
  call void @llvm.lifetime.end.p0(i64 8, ptr %16) #5
  call void @llvm.lifetime.end.p0(i64 4, ptr %15) #5
  ret i16 %124
}