; Function Attrs: null_pointer_is_valid sspstrong uwtable
define internal noundef zeroext i16 @be_l3_info(ptr noundef %0, ptr noundef %1, ptr noundef %2, i32 noundef %3, i32 noundef %4, ptr readnone captures(none) %5, i32 %6) #1 {
  %8 = load i32, ptr @hf_gsm_a_bssmap_layer_3_information_value, align 4
  %9 = tail call ptr (ptr, i32, ptr, i32, i32, ptr, ptr, ...) @proto_tree_add_bytes_format(ptr noundef %1, i32 noundef %8, ptr noundef %0, i32 noundef %3, i32 noundef %4, ptr noundef null, ptr noundef nonnull @.str.452)
  %10 = tail call ptr @tvb_new_subset_length(ptr noundef %0, i32 noundef %3, i32 noundef %4)
  %11 = load i8, ptr @cell_discriminator, align 1
  %12 = zext i8 %11 to i32
  %13 = icmp eq i8 %11, -1
  br i1 %13, label %14, label %17

14:                                               ; preds = %7
  %15 = load i32, ptr @hf_gsm_a_bssmap_cell_discriminator, align 4
  %16 = tail call ptr (ptr, i32, ptr, i32, i32, i32, ptr, ...) @proto_tree_add_uint_format(ptr noundef %1, i32 noundef %15, ptr noundef %10, i32 noundef %3, i32 noundef 1, i32 noundef 255, ptr noundef nonnull @.str.721)
  tail call void @proto_item_set_len(ptr noundef %16, i32 noundef %4)
  br label %49

17:                                               ; preds = %7
  %18 = and i32 %12, 15
  %19 = icmp samesign ult i32 %18, 8
  br i1 %19, label %20, label %33

20:                                               ; preds = %17
  %21 = load i32, ptr @hf_gsm_a_bssmap_cell_discriminator, align 4
  %22 = tail call ptr @proto_tree_add_uint(ptr noundef %1, i32 noundef %21, ptr noundef %10, i32 noundef %3, i32 noundef 1, i32 noundef %12)
  %.not.i = icmp eq ptr %22, null
  br i1 %.not.i, label %proto_item_set_hidden.exit, label %23

23:                                               ; preds = %20
  %24 = getelementptr inbounds nuw i8, ptr %22, i64 40
  %25 = load ptr, ptr %24, align 8
  %.not5.i = icmp eq ptr %25, null
  br i1 %.not5.i, label %proto_item_set_hidden.exit, label %26

26:                                               ; preds = %23
  %27 = getelementptr inbounds nuw i8, ptr %25, i64 28
  %28 = load i32, ptr %27, align 4
  %29 = or i32 %28, 1
  store i32 %29, ptr %27, align 4
  br label %proto_item_set_hidden.exit

proto_item_set_hidden.exit:                       ; preds = %20, %23, %26
  %30 = load ptr, ptr @dtap_handle, align 8
  %31 = load ptr, ptr @g_tree, align 8
  %32 = tail call i32 @call_dissector(ptr noundef %30, ptr noundef %10, ptr noundef %2, ptr noundef %31)
  br label %49

33:                                               ; preds = %17
  %34 = icmp samesign ult i32 %18, 13
  %35 = load i32, ptr @hf_gsm_a_bssmap_cell_discriminator, align 4
  br i1 %34, label %36, label %47

36:                                               ; preds = %33
  %37 = tail call ptr @proto_tree_add_uint(ptr noundef %1, i32 noundef %35, ptr noundef %10, i32 noundef %3, i32 noundef 1, i32 noundef %12)
  %.not.i48 = icmp eq ptr %37, null
  br i1 %.not.i48, label %proto_item_set_hidden.exit50, label %38

38:                                               ; preds = %36
  %39 = getelementptr inbounds nuw i8, ptr %37, i64 40
  %40 = load ptr, ptr %39, align 8
  %.not5.i49 = icmp eq ptr %40, null
  br i1 %.not5.i49, label %proto_item_set_hidden.exit50, label %41

41:                                               ; preds = %38
  %42 = getelementptr inbounds nuw i8, ptr %40, i64 28
  %43 = load i32, ptr %42, align 4
  %44 = or i32 %43, 1
  store i32 %44, ptr %42, align 4
  br label %proto_item_set_hidden.exit50

proto_item_set_hidden.exit50:                     ; preds = %36, %38, %41
  %45 = load ptr, ptr @g_tree, align 8
  %46 = tail call i32 @dissect_rrc_HandoverToUTRANCommand_PDU(ptr noundef %10, ptr noundef %2, ptr noundef %45, ptr noundef null)
  br label %49

47:                                               ; preds = %33
  %48 = tail call ptr (ptr, i32, ptr, i32, i32, i32, ptr, ...) @proto_tree_add_uint_format(ptr noundef %1, i32 noundef %35, ptr noundef %10, i32 noundef %3, i32 noundef 1, i32 noundef %12, ptr noundef nonnull @.str.722, i32 noundef %12)
  tail call void @proto_item_set_len(ptr noundef %48, i32 noundef %4)
  br label %49

49:                                               ; preds = %14, %proto_item_set_hidden.exit50, %47, %proto_item_set_hidden.exit
  %50 = trunc i32 %4 to i16
  ret i16 %50
}